; Function Attrs: nounwind uwtable
define internal i32 @pmix_pfexec_base_close() #0 {
  %1 = load i8, ptr getelementptr inbounds nuw (i8, ptr @pmix_pfexec_globals, i64 8), align 8, !tbaa !46, !range !47, !noundef !48
  %2 = trunc nuw i8 %1 to i1
  br i1 %2, label %3, label %6

3:                                                ; preds = %0
  %4 = load ptr, ptr @pmix_pfexec_globals, align 8, !tbaa !49
  %5 = tail call i32 @event_del(ptr noundef %4) #10
  store i8 0, ptr getelementptr inbounds nuw (i8, ptr @pmix_pfexec_globals, i64 8), align 8, !tbaa !46
  br label %6

6:                                                ; preds = %0, %3
  %7 = load volatile i64, ptr getelementptr inbounds nuw (i8, ptr @pmix_pfexec_globals, i64 280), align 8, !tbaa !25
  %8 = icmp eq i64 %7, 0
  br i1 %8, label %._crit_edge, label %.lr.ph

.lr.ph:                                           ; preds = %6, %41
  %9 = load volatile i64, ptr getelementptr inbounds nuw (i8, ptr @pmix_pfexec_globals, i64 280), align 8, !tbaa !25
  %10 = add i64 %9, -1
  store volatile i64 %10, ptr getelementptr inbounds nuw (i8, ptr @pmix_pfexec_globals, i64 280), align 8, !tbaa !25
  %11 = load ptr, ptr getelementptr inbounds nuw (i8, ptr @pmix_pfexec_globals, i64 256), align 8, !tbaa !50
  %12 = getelementptr inbounds nuw i8, ptr %11, i64 128
  %13 = load volatile ptr, ptr %12, align 8, !tbaa !24
  %14 = getelementptr inbounds nuw i8, ptr %11, i64 120
  %15 = load volatile ptr, ptr %14, align 8, !tbaa !21
  %16 = getelementptr inbounds nuw i8, ptr %15, i64 128
  store volatile ptr %13, ptr %16, align 8, !tbaa !24
  %17 = load volatile ptr, ptr %14, align 8, !tbaa !21
  store ptr %17, ptr getelementptr inbounds nuw (i8, ptr @pmix_pfexec_globals, i64 256), align 8, !tbaa !50
  %18 = tail call i32 @pthread_mutex_lock(ptr noundef nonnull %11) #10
  %19 = icmp eq i32 %18, 35
  br i1 %19, label %20, label %pmix_obj_update.exit

20:                                               ; preds = %.lr.ph
  %21 = tail call ptr @__errno_location() #11
  store i32 35, ptr %21, align 4, !tbaa !29
  tail call void @perror(ptr noundef nonnull @.str.11) #12
  tail call void @abort() #13
  unreachable

pmix_obj_update.exit:                             ; preds = %.lr.ph
  %22 = getelementptr inbounds nuw i8, ptr %11, i64 48
  %23 = load i32, ptr %22, align 8, !tbaa !30
  %24 = add nsw i32 %23, -1
  store i32 %24, ptr %22, align 8, !tbaa !30
  %25 = tail call i32 @pthread_mutex_unlock(ptr noundef nonnull %11) #10
  %26 = icmp eq i32 %24, 0
  br i1 %26, label %27, label %41

27:                                               ; preds = %pmix_obj_update.exit
  %28 = getelementptr inbounds nuw i8, ptr %11, i64 40
  %29 = load ptr, ptr %28, align 8, !tbaa !31
  %30 = getelementptr inbounds nuw i8, ptr %29, i64 48
  %31 = load ptr, ptr %30, align 8, !tbaa !32
  %32 = load ptr, ptr %31, align 8, !tbaa !35
  %.not6.i = icmp eq ptr %32, null
  br i1 %.not6.i, label %pmix_obj_run_destructors.exit, label %.lr.ph.i

.lr.ph.i:                                         ; preds = %27, %.lr.ph.i
  %33 = phi ptr [ %35, %.lr.ph.i ], [ %32, %27 ]
  %.07.i = phi ptr [ %34, %.lr.ph.i ], [ %31, %27 ]
  tail call void %33(ptr noundef nonnull %11) #10
  %34 = getelementptr inbounds nuw i8, ptr %.07.i, i64 8
  %35 = load ptr, ptr %34, align 8, !tbaa !35
  %.not.i = icmp eq ptr %35, null
  br i1 %.not.i, label %pmix_obj_run_destructors.exit, label %.lr.ph.i, !llvm.loop !36

pmix_obj_run_destructors.exit:                    ; preds = %.lr.ph.i, %27
  %36 = getelementptr inbounds nuw i8, ptr %11, i64 96
  %37 = load ptr, ptr %36, align 8, !tbaa !37
  %.not7 = icmp eq ptr %37, null
  br i1 %.not7, label %40, label %38

38:                                               ; preds = %pmix_obj_run_destructors.exit
  %39 = getelementptr inbounds nuw i8, ptr %11, i64 56
  tail call void %37(ptr noundef nonnull %39, ptr noundef nonnull %11) #10
  br label %41

40:                                               ; preds = %pmix_obj_run_destructors.exit
  tail call void @free(ptr noundef nonnull %11) #10
  br label %41

41:                                               ; preds = %38, %40, %pmix_obj_update.exit
  %42 = load volatile i64, ptr getelementptr inbounds nuw (i8, ptr @pmix_pfexec_globals, i64 280), align 8, !tbaa !25
  %43 = icmp eq i64 %42, 0
  br i1 %43, label %._crit_edge, label %.lr.ph, !llvm.loop !51

._crit_edge:                                      ; preds = %41, %6
  %44 = load ptr, ptr getelementptr inbounds nuw (i8, ptr @pmix_pfexec_globals, i64 56), align 8, !tbaa !31
  %45 = getelementptr inbounds nuw i8, ptr %44, i64 48
  %46 = load ptr, ptr %45, align 8, !tbaa !32
  %47 = load ptr, ptr %46, align 8, !tbaa !35
  %.not6.i9 = icmp eq ptr %47, null
  br i1 %.not6.i9, label %pmix_obj_run_destructors.exit13, label %.lr.ph.i10

.lr.ph.i10:                                       ; preds = %._crit_edge, %.lr.ph.i10
  %48 = phi ptr [ %50, %.lr.ph.i10 ], [ %47, %._crit_edge ]
  %.07.i11 = phi ptr [ %49, %.lr.ph.i10 ], [ %46, %._crit_edge ]
  tail call void %48(ptr noundef nonnull getelementptr inbounds nuw (i8, ptr @pmix_pfexec_globals, i64 16)) #10
  %49 = getelementptr inbounds nuw i8, ptr %.07.i11, i64 8
  %50 = load ptr, ptr %49, align 8, !tbaa !35
  %.not.i12 = icmp eq ptr %50, null
  br i1 %.not.i12, label %pmix_obj_run_destructors.exit13, label %.lr.ph.i10, !llvm.loop !36

pmix_obj_run_destructors.exit13:                  ; preds = %.lr.ph.i10, %._crit_edge
  %51 = load ptr, ptr @pmix_pfexec_globals, align 8, !tbaa !49
  tail call void @free(ptr noundef %51) #10
  store i8 0, ptr getelementptr inbounds nuw (i8, ptr @pmix_pfexec_globals, i64 304), align 8, !tbaa !52
  %52 = tail call i32 @pmix_mca_base_framework_components_close(ptr noundef nonnull @pmix_pfexec_base_framework, ptr noundef null) #10
  ret i32 %52
}